; Function Attrs: nofree norecurse nosync nounwind memory(read, inaccessiblemem: none) uwtable
define ptr @Abc_NodeFindCoFanout(ptr noundef readonly captures(none) %0) local_unnamed_addr #2 {
  %2 = getelementptr i8, ptr %0, i64 44
  %.val = load i32, ptr %2, align 4
  %3 = icmp sgt i32 %.val, 0
  br i1 %3, label %.lr.ph, label %.critedge

.lr.ph:                                           ; preds = %1
  %.val8 = load ptr, ptr %0, align 8
  %4 = getelementptr i8, ptr %0, i64 48
  %.val9 = load ptr, ptr %4, align 8
  %5 = getelementptr i8, ptr %.val8, i64 32
  %.val8.val = load ptr, ptr %5, align 8
  %6 = getelementptr i8, ptr %.val8.val, i64 8
  %.val8.val.val = load ptr, ptr %6, align 8
  %wide.trip.count = zext nneg i32 %.val to i64
  br label %8

7:                                                ; preds = %8
  %indvars.iv.next = add nuw nsw i64 %indvars.iv, 1
  %exitcond.not = icmp eq i64 %indvars.iv.next, %wide.trip.count
  br i1 %exitcond.not, label %.critedge, label %8, !llvm.loop !46

8:                                                ; preds = %.lr.ph, %7
  %indvars.iv = phi i64 [ 0, %.lr.ph ], [ %indvars.iv.next, %7 ]
  %9 = getelementptr inbounds nuw i32, ptr %.val9, i64 %indvars.iv
  %10 = load i32, ptr %9, align 4
  %11 = sext i32 %10 to i64
  %12 = getelementptr inbounds ptr, ptr %.val8.val.val, i64 %11
  %13 = load ptr, ptr %12, align 8
  %14 = getelementptr i8, ptr %13, i64 20
  %.val10 = load i32, ptr %14, align 4
  %15 = and i32 %.val10, 15
  %16 = add nsw i32 %15, -5
  %narrow.i = icmp ult i32 %16, -2
  br i1 %narrow.i, label %7, label %.critedge

.critedge:                                        ; preds = %8, %7, %1
  %.07 = phi ptr [ null, %1 ], [ null, %7 ], [ %13, %8 ]
  ret ptr %.07
}